target datalayout = "e-m:e-p270:32:32-p271:32:32-p272:64:64-i64:64-i128:128-f80:128-n8:16:32:64-S128"
target triple = "x86_64-pc-linux-gnu"

%struct.ClientData = type { ptr, i64, i64, i64, i32, i32, i32 }
%struct.FLAC__Frame = type { %struct.FLAC__FrameHeader, [8 x %struct.FLAC__Subframe], %struct.FLAC__FrameFooter }
%struct.FLAC__FrameHeader = type { i32, i32, i32, i32, i32, i32, %union.anon.0, i8 }
%union.anon.0 = type { i64 }
%struct.FLAC__Subframe = type { i32, %union.anon.1, i32 }
%union.anon.1 = type { %struct.FLAC__Subframe_LPC }
%struct.FLAC__Subframe_LPC = type { %struct.FLAC__EntropyCodingMethod, i32, i32, i32, [32 x i32], [32 x i64], ptr }
%struct.FLAC__EntropyCodingMethod = type { i32, %union.anon.2 }
%union.anon.2 = type { %struct.FLAC__EntropyCodingMethod_PartitionedRice }
%struct.FLAC__EntropyCodingMethod_PartitionedRice = type { i32, ptr }
%struct.FLAC__FrameFooter = type { i16 }
%struct.FLAC__StreamMetadata_SeekTable = type { i32, ptr }
%struct.FLAC__StreamMetadata_SeekPoint = type { i64, i64, i32 }

; Function Attrs: nounwind sspstrong uwtable
define internal i32 @write_callback_(ptr noundef %0, ptr noundef %1, ptr noundef %2, ptr noundef %3) #0 {
  %5 = alloca i32, align 4
  %6 = alloca ptr, align 8
  %7 = alloca ptr, align 8
  %8 = alloca ptr, align 8
  %9 = alloca ptr, align 8
  %10 = alloca ptr, align 8
  %11 = alloca i32, align 4
  %12 = alloca i64, align 8
  %13 = alloca i64, align 8
  %14 = alloca i64, align 8
  %15 = alloca i32, align 4
  %16 = alloca i32, align 4
  store ptr %0, ptr %6, align 8, !tbaa !34
  store ptr %1, ptr %7, align 8, !tbaa !34
  store ptr %2, ptr %8, align 8, !tbaa !38
  store ptr %3, ptr %9, align 8, !tbaa !34
  call void @llvm.lifetime.start.p0(i64 8, ptr %10) #3
  %17 = load ptr, ptr %9, align 8, !tbaa !34
  store ptr %17, ptr %10, align 8, !tbaa !34
  %18 = load ptr, ptr %10, align 8, !tbaa !34
  %19 = getelementptr inbounds nuw %struct.ClientData, ptr %18, i32 0, i32 5
  %20 = load i32, ptr %19, align 4, !tbaa !33
  %21 = icmp ne i32 %20, 0
  br i1 %21, label %131, label %22

22:                                               ; preds = %4
  call void @llvm.lifetime.start.p0(i64 4, ptr %11) #3
  %23 = load ptr, ptr %7, align 8, !tbaa !34
  %24 = getelementptr inbounds nuw %struct.FLAC__Frame, ptr %23, i32 0, i32 0
  %25 = getelementptr inbounds nuw %struct.FLAC__FrameHeader, ptr %24, i32 0, i32 0
  %26 = load i32, ptr %25, align 8, !tbaa !40
  store i32 %26, ptr %11, align 4, !tbaa !13
  call void @llvm.lifetime.start.p0(i64 8, ptr %12) #3
  %27 = load ptr, ptr %10, align 8, !tbaa !34
  %28 = getelementptr inbounds nuw %struct.ClientData, ptr %27, i32 0, i32 1
  %29 = load i64, ptr %28, align 8, !tbaa !31
  store i64 %29, ptr %12, align 8, !tbaa !19
  call void @llvm.lifetime.start.p0(i64 8, ptr %13) #3
  %30 = load i64, ptr %12, align 8, !tbaa !19
  %31 = load i32, ptr %11, align 4, !tbaa !13
  %32 = zext i32 %31 to i64
  %33 = add i64 %30, %32
  %34 = sub i64 %33, 1
  store i64 %34, ptr %13, align 8, !tbaa !19
  call void @llvm.lifetime.start.p0(i64 8, ptr %14) #3
  call void @llvm.lifetime.start.p0(i64 4, ptr %15) #3
  %35 = load ptr, ptr %10, align 8, !tbaa !34
  %36 = getelementptr inbounds nuw %struct.ClientData, ptr %35, i32 0, i32 4
  %37 = load i32, ptr %36, align 8, !tbaa !32
  store i32 %37, ptr %15, align 4, !tbaa !13
  br label %38

38:                                               ; preds = %113, %22
  %39 = load i32, ptr %15, align 4, !tbaa !13
  %40 = load ptr, ptr %10, align 8, !tbaa !34
  %41 = getelementptr inbounds nuw %struct.ClientData, ptr %40, i32 0, i32 0
  %42 = load ptr, ptr %41, align 8, !tbaa !29
  %43 = getelementptr inbounds nuw %struct.FLAC__StreamMetadata_SeekTable, ptr %42, i32 0, i32 0
  %44 = load i32, ptr %43, align 8, !tbaa !45
  %45 = icmp ult i32 %39, %44
  br i1 %45, label %46, label %116

46:                                               ; preds = %38
  %47 = load ptr, ptr %10, align 8, !tbaa !34
  %48 = getelementptr inbounds nuw %struct.ClientData, ptr %47, i32 0, i32 0
  %49 = load ptr, ptr %48, align 8, !tbaa !29
  %50 = getelementptr inbounds nuw %struct.FLAC__StreamMetadata_SeekTable, ptr %49, i32 0, i32 1
  %51 = load ptr, ptr %50, align 8, !tbaa !47
  %52 = load i32, ptr %15, align 4, !tbaa !13
  %53 = zext i32 %52 to i64
  %54 = getelementptr inbounds nuw %struct.FLAC__StreamMetadata_SeekPoint, ptr %51, i64 %53
  %55 = getelementptr inbounds nuw %struct.FLAC__StreamMetadata_SeekPoint, ptr %54, i32 0, i32 0
  %56 = load i64, ptr %55, align 8, !tbaa !48
  store i64 %56, ptr %14, align 8, !tbaa !19
  %57 = load i64, ptr %14, align 8, !tbaa !19
  %58 = load i64, ptr %13, align 8, !tbaa !19
  %59 = icmp ugt i64 %57, %58
  br i1 %59, label %60, label %61

60:                                               ; preds = %46
  br label %116

61:                                               ; preds = %46
  %62 = load i64, ptr %14, align 8, !tbaa !19
  %63 = load i64, ptr %12, align 8, !tbaa !19
  %64 = icmp uge i64 %62, %63
  br i1 %64, label %65, label %106

65:                                               ; preds = %61
  %66 = load i64, ptr %12, align 8, !tbaa !19
  %67 = load ptr, ptr %10, align 8, !tbaa !34
  %68 = getelementptr inbounds nuw %struct.ClientData, ptr %67, i32 0, i32 0
  %69 = load ptr, ptr %68, align 8, !tbaa !29
  %70 = getelementptr inbounds nuw %struct.FLAC__StreamMetadata_SeekTable, ptr %69, i32 0, i32 1
  %71 = load ptr, ptr %70, align 8, !tbaa !47
  %72 = load i32, ptr %15, align 4, !tbaa !13
  %73 = zext i32 %72 to i64
  %74 = getelementptr inbounds nuw %struct.FLAC__StreamMetadata_SeekPoint, ptr %71, i64 %73
  %75 = getelementptr inbounds nuw %struct.FLAC__StreamMetadata_SeekPoint, ptr %74, i32 0, i32 0
  store i64 %66, ptr %75, align 8, !tbaa !48
  %76 = load ptr, ptr %10, align 8, !tbaa !34
  %77 = getelementptr inbounds nuw %struct.ClientData, ptr %76, i32 0, i32 3
  %78 = load i64, ptr %77, align 8, !tbaa !36
  %79 = load ptr, ptr %10, align 8, !tbaa !34
  %80 = getelementptr inbounds nuw %struct.ClientData, ptr %79, i32 0, i32 2
  %81 = load i64, ptr %80, align 8, !tbaa !35
  %82 = sub i64 %78, %81
  %83 = load ptr, ptr %10, align 8, !tbaa !34
  %84 = getelementptr inbounds nuw %struct.ClientData, ptr %83, i32 0, i32 0
  %85 = load ptr, ptr %84, align 8, !tbaa !29
  %86 = getelementptr inbounds nuw %struct.FLAC__StreamMetadata_SeekTable, ptr %85, i32 0, i32 1
  %87 = load ptr, ptr %86, align 8, !tbaa !47
  %88 = load i32, ptr %15, align 4, !tbaa !13
  %89 = zext i32 %88 to i64
  %90 = getelementptr inbounds nuw %struct.FLAC__StreamMetadata_SeekPoint, ptr %87, i64 %89
  %91 = getelementptr inbounds nuw %struct.FLAC__StreamMetadata_SeekPoint, ptr %90, i32 0, i32 1
  store i64 %82, ptr %91, align 8, !tbaa !50
  %92 = load i32, ptr %11, align 4, !tbaa !13
  %93 = load ptr, ptr %10, align 8, !tbaa !34
  %94 = getelementptr inbounds nuw %struct.ClientData, ptr %93, i32 0, i32 0
  %95 = load ptr, ptr %94, align 8, !tbaa !29
  %96 = getelementptr inbounds nuw %struct.FLAC__StreamMetadata_SeekTable, ptr %95, i32 0, i32 1
  %97 = load ptr, ptr %96, align 8, !tbaa !47
  %98 = load i32, ptr %15, align 4, !tbaa !13
  %99 = zext i32 %98 to i64
  %100 = getelementptr inbounds nuw %struct.FLAC__StreamMetadata_SeekPoint, ptr %97, i64 %99
  %101 = getelementptr inbounds nuw %struct.FLAC__StreamMetadata_SeekPoint, ptr %100, i32 0, i32 2
  store i32 %92, ptr %101, align 8, !tbaa !51
  %102 = load ptr, ptr %10, align 8, !tbaa !34
  %103 = getelementptr inbounds nuw %struct.ClientData, ptr %102, i32 0, i32 4
  %104 = load i32, ptr %103, align 8, !tbaa !32
  %105 = add i32 %104, 1
  store i32 %105, ptr %103, align 8, !tbaa !32
  br label %111

106:                                              ; preds = %61
  %107 = load ptr, ptr %10, align 8, !tbaa !34
  %108 = getelementptr inbounds nuw %struct.ClientData, ptr %107, i32 0, i32 4
  %109 = load i32, ptr %108, align 8, !tbaa !32
  %110 = add i32 %109, 1
  store i32 %110, ptr %108, align 8, !tbaa !32
  br label %111

111:                                              ; preds = %106, %65
  br label %112

112:                                              ; preds = %111
  br label %113

113:                                              ; preds = %112
  %114 = load i32, ptr %15, align 4, !tbaa !13
  %115 = add i32 %114, 1
  store i32 %115, ptr %15, align 4, !tbaa !13
  br label %38, !llvm.loop !52

116:                                              ; preds = %60, %38
  %117 = load i32, ptr %11, align 4, !tbaa !13
  %118 = zext i32 %117 to i64
  %119 = load ptr, ptr %10, align 8, !tbaa !34
  %120 = getelementptr inbounds nuw %struct.ClientData, ptr %119, i32 0, i32 1
  %121 = load i64, ptr %120, align 8, !tbaa !31
  %122 = add i64 %121, %118
  store i64 %122, ptr %120, align 8, !tbaa !31
  %123 = load ptr, ptr %6, align 8, !tbaa !34
  %124 = load ptr, ptr %10, align 8, !tbaa !34
  %125 = getelementptr inbounds nuw %struct.ClientData, ptr %124, i32 0, i32 3
  %126 = call i32 @FLAC__stream_decoder_get_decode_position(ptr noundef %123, ptr noundef %125)
  %127 = icmp ne i32 %126, 0
  br i1 %127, label %129, label %128

128:                                              ; preds = %116
  store i32 1, ptr %5, align 4
  store i32 1, ptr %16, align 4
  br label %130

129:                                              ; preds = %116
  store i32 0, ptr %5, align 4
  store i32 1, ptr %16, align 4
  br label %130

130:                                              ; preds = %129, %128
  call void @llvm.lifetime.end.p0(i64 4, ptr %15) #3
  call void @llvm.lifetime.end.p0(i64 8, ptr %14) #3
  call void @llvm.lifetime.end.p0(i64 8, ptr %13) #3
  call void @llvm.lifetime.end.p0(i64 8, ptr %12) #3
  call void @llvm.lifetime.end.p0(i64 4, ptr %11) #3
  br label %132

131:                                              ; preds = %4
  store i32 1, ptr %5, align 4
  store i32 1, ptr %16, align 4
  br label %132

132:                                              ; preds = %131, %130
  call void @llvm.lifetime.end.p0(i64 8, ptr %10) #3
  %133 = load i32, ptr %5, align 4
  ret i32 %133
}