; Function Attrs: nounwind sspstrong uwtable
define internal range(i32 0, 2) i32 @write_callback_(ptr noundef %0, ptr noundef readonly captures(none) %1, ptr readnone captures(none) %2, ptr noundef %3) #0 {
  %5 = getelementptr inbounds nuw i8, ptr %3, i64 36
  %6 = load i32, ptr %5, align 4, !tbaa !21
  %.not = icmp eq i32 %6, 0
  br i1 %.not, label %7, label %38

7:                                                ; preds = %4
  %8 = load i32, ptr %1, align 8, !tbaa !28
  %9 = getelementptr inbounds nuw i8, ptr %3, i64 8
  %10 = load i64, ptr %9, align 8, !tbaa !19
  %11 = zext i32 %8 to i64
  %12 = add i64 %10, %11
  %13 = add i64 %12, -1
  %14 = getelementptr inbounds nuw i8, ptr %3, i64 32
  %15 = load i32, ptr %14, align 8, !tbaa !20
  %16 = load ptr, ptr %3, align 8, !tbaa !16
  %17 = load i32, ptr %16, align 8, !tbaa !33
  %18 = icmp ult i32 %15, %17
  br i1 %18, label %.lr.ph, label %._crit_edge

.lr.ph:                                           ; preds = %7
  %19 = getelementptr inbounds nuw i8, ptr %16, i64 8
  %20 = load ptr, ptr %19, align 8, !tbaa !35
  %21 = getelementptr inbounds nuw i8, ptr %3, i64 24
  %22 = getelementptr inbounds nuw i8, ptr %3, i64 16
  %23 = zext i32 %15 to i64
  %wide.trip.count = zext i32 %17 to i64
  br label %24

24:                                               ; preds = %.lr.ph, %35
  %storemerge.in = phi i32 [ %15, %.lr.ph ], [ %storemerge, %35 ]
  %indvars.iv = phi i64 [ %23, %.lr.ph ], [ %indvars.iv.next, %35 ]
  %25 = getelementptr inbounds nuw %struct.FLAC__StreamMetadata_SeekPoint, ptr %20, i64 %indvars.iv
  %26 = load i64, ptr %25, align 8, !tbaa !36
  %27 = icmp ugt i64 %26, %13
  br i1 %27, label %._crit_edge, label %28

28:                                               ; preds = %24
  %.not35 = icmp ult i64 %26, %10
  br i1 %.not35, label %35, label %29

29:                                               ; preds = %28
  store i64 %10, ptr %25, align 8, !tbaa !36
  %30 = load i64, ptr %21, align 8, !tbaa !23
  %31 = load i64, ptr %22, align 8, !tbaa !22
  %32 = sub i64 %30, %31
  %33 = getelementptr inbounds nuw %struct.FLAC__StreamMetadata_SeekPoint, ptr %20, i64 %indvars.iv, i32 1
  store i64 %32, ptr %33, align 8, !tbaa !38
  %34 = getelementptr inbounds nuw %struct.FLAC__StreamMetadata_SeekPoint, ptr %20, i64 %indvars.iv, i32 2
  store i32 %8, ptr %34, align 8, !tbaa !39
  br label %35

35:                                               ; preds = %28, %29
  %storemerge = add i32 %storemerge.in, 1
  store i32 %storemerge, ptr %14, align 8, !tbaa !20
  %indvars.iv.next = add nuw nsw i64 %indvars.iv, 1
  %exitcond.not = icmp eq i64 %indvars.iv.next, %wide.trip.count
  br i1 %exitcond.not, label %._crit_edge, label %24, !llvm.loop !40

._crit_edge:                                      ; preds = %35, %24, %7
  store i64 %12, ptr %9, align 8, !tbaa !19
  %36 = getelementptr inbounds nuw i8, ptr %3, i64 24
  %37 = tail call i32 @FLAC__stream_decoder_get_decode_position(ptr noundef %0, ptr noundef nonnull %36) #4
  %.not36 = icmp eq i32 %37, 0
  %. = zext i1 %.not36 to i32
  br label %38

38:                                               ; preds = %4, %._crit_edge
  %.1 = phi i32 [ %., %._crit_edge ], [ 1, %4 ]
  ret i32 %.1
}